; ModuleID = '9/577.c'
source_filename = "9/577.c"
target datalayout = "e-m:e-p270:32:32-p271:32:32-p272:64:64-i64:64-f80:128-n8:16:32:64-S128"
target triple = "x86_64-pc-linux-gnu"

@.str = private unnamed_addr constant [3 x i8] c"%d\00", align 1
@.str.1 = private unnamed_addr constant [6 x i8] c"%s %d\00", align 1
@.str.2 = private unnamed_addr constant [4 x i8] c"%s\0A\00", align 1

; Function Attrs: noinline nounwind uwtable
define dso_local i32 @main() #0 {
  %1 = alloca i32, align 4
  %2 = alloca i32, align 4
  %3 = alloca i32, align 4
  %4 = alloca i32, align 4
  %5 = alloca i32, align 4
  %6 = alloca i8*, align 8
  %7 = alloca i64, align 8
  %8 = alloca [1 x [10 x i8]], align 1
  %9 = alloca i64, align 8
  store i32 0, i32* %1, align 4
  %10 = call i32 (i8*, ...) @__isoc99_scanf(i8* getelementptr inbounds ([3 x i8], [3 x i8]* @.str, i64 0, i64 0), i32* %2)
  %11 = load i32, i32* %2, align 4
  %12 = zext i32 %11 to i64
  %13 = call i8* @llvm.stacksave()
  store i8* %13, i8** %6, align 8
  %14 = alloca [10 x i8], i64 %12, align 16
  store i64 %12, i64* %7, align 8
  %15 = load i32, i32* %2, align 4
  %16 = zext i32 %15 to i64
  %17 = alloca i32, i64 %16, align 16
  store i64 %16, i64* %9, align 8
  store i32 0, i32* %3, align 4
  br label %18

18:                                               ; preds = %31, %0
  %19 = load i32, i32* %3, align 4
  %20 = load i32, i32* %2, align 4
  %21 = icmp slt i32 %19, %20
  br i1 %21, label %22, label %34

22:                                               ; preds = %18
  %23 = load i32, i32* %3, align 4
  %24 = sext i32 %23 to i64
  %25 = getelementptr inbounds [10 x i8], [10 x i8]* %14, i64 %24
  %26 = getelementptr inbounds [10 x i8], [10 x i8]* %25, i64 0, i64 0
  %27 = load i32, i32* %3, align 4
  %28 = sext i32 %27 to i64
  %29 = getelementptr inbounds i32, i32* %17, i64 %28
  %30 = call i32 (i8*, ...) @__isoc99_scanf(i8* getelementptr inbounds ([6 x i8], [6 x i8]* @.str.1, i64 0, i64 0), i8* %26, i32* %29)
  br label %31

31:                                               ; preds = %22
  %32 = load i32, i32* %3, align 4
  %33 = add nsw i32 %32, 1
  store i32 %33, i32* %3, align 4
  br label %18

34:                                               ; preds = %18
  %35 = load i32, i32* %2, align 4
  %36 = sub nsw i32 %35, 1
  store i32 %36, i32* %3, align 4
  br label %37

37:                                               ; preds = %116, %34
  %38 = load i32, i32* %3, align 4
  %39 = icmp sgt i32 %38, 0
  br i1 %39, label %40, label %119

40:                                               ; preds = %37
  %41 = load i32, i32* %2, align 4
  %42 = sub nsw i32 %41, 1
  store i32 %42, i32* %4, align 4
  br label %43

43:                                               ; preds = %112, %40
  %44 = load i32, i32* %4, align 4
  %45 = load i32, i32* %2, align 4
  %46 = load i32, i32* %3, align 4
  %47 = sub nsw i32 %45, %46
  %48 = sub nsw i32 %47, 1
  %49 = icmp sgt i32 %44, %48
  br i1 %49, label %50, label %115

50:                                               ; preds = %43
  %51 = load i32, i32* %4, align 4
  %52 = sext i32 %51 to i64
  %53 = getelementptr inbounds i32, i32* %17, i64 %52
  %54 = load i32, i32* %53, align 4
  %55 = icmp sge i32 %54, 60
  br i1 %55, label %56, label %111

56:                                               ; preds = %50
  %57 = load i32, i32* %4, align 4
  %58 = sext i32 %57 to i64
  %59 = getelementptr inbounds i32, i32* %17, i64 %58
  %60 = load i32, i32* %59, align 4
  %61 = load i32, i32* %4, align 4
  %62 = sub nsw i32 %61, 1
  %63 = sext i32 %62 to i64
  %64 = getelementptr inbounds i32, i32* %17, i64 %63
  %65 = load i32, i32* %64, align 4
  %66 = icmp sgt i32 %60, %65
  br i1 %66, label %67, label %110

67:                                               ; preds = %56
  %68 = load i32, i32* %4, align 4
  %69 = sub nsw i32 %68, 1
  %70 = sext i32 %69 to i64
  %71 = getelementptr inbounds i32, i32* %17, i64 %70
  %72 = load i32, i32* %71, align 4
  store i32 %72, i32* %5, align 4
  %73 = load i32, i32* %4, align 4
  %74 = sext i32 %73 to i64
  %75 = getelementptr inbounds i32, i32* %17, i64 %74
  %76 = load i32, i32* %75, align 4
  %77 = load i32, i32* %4, align 4
  %78 = sub nsw i32 %77, 1
  %79 = sext i32 %78 to i64
  %80 = getelementptr inbounds i32, i32* %17, i64 %79
  store i32 %76, i32* %80, align 4
  %81 = load i32, i32* %5, align 4
  %82 = load i32, i32* %4, align 4
  %83 = sext i32 %82 to i64
  %84 = getelementptr inbounds i32, i32* %17, i64 %83
  store i32 %81, i32* %84, align 4
  %85 = getelementptr inbounds [1 x [10 x i8]], [1 x [10 x i8]]* %8, i64 0, i64 0
  %86 = getelementptr inbounds [10 x i8], [10 x i8]* %85, i64 0, i64 0
  %87 = load i32, i32* %4, align 4
  %88 = sub nsw i32 %87, 1
  %89 = sext i32 %88 to i64
  %90 = getelementptr inbounds [10 x i8], [10 x i8]* %14, i64 %89
  %91 = getelementptr inbounds [10 x i8], [10 x i8]* %90, i64 0, i64 0
  %92 = call i8* @strcpy(i8* %86, i8* %91) #2
  %93 = load i32, i32* %4, align 4
  %94 = sub nsw i32 %93, 1
  %95 = sext i32 %94 to i64
  %96 = getelementptr inbounds [10 x i8], [10 x i8]* %14, i64 %95
  %97 = getelementptr inbounds [10 x i8], [10 x i8]* %96, i64 0, i64 0
  %98 = load i32, i32* %4, align 4
  %99 = sext i32 %98 to i64
  %100 = getelementptr inbounds [10 x i8], [10 x i8]* %14, i64 %99
  %101 = getelementptr inbounds [10 x i8], [10 x i8]* %100, i64 0, i64 0
  %102 = call i8* @strcpy(i8* %97, i8* %101) #2
  %103 = load i32, i32* %4, align 4
  %104 = sext i32 %103 to i64
  %105 = getelementptr inbounds [10 x i8], [10 x i8]* %14, i64 %104
  %106 = getelementptr inbounds [10 x i8], [10 x i8]* %105, i64 0, i64 0
  %107 = getelementptr inbounds [1 x [10 x i8]], [1 x [10 x i8]]* %8, i64 0, i64 0
  %108 = getelementptr inbounds [10 x i8], [10 x i8]* %107, i64 0, i64 0
  %109 = call i8* @strcpy(i8* %106, i8* %108) #2
  br label %110

110:                                              ; preds = %67, %56
  br label %111

111:                                              ; preds = %110, %50
  br label %112

112:                                              ; preds = %111
  %113 = load i32, i32* %4, align 4
  %114 = add nsw i32 %113, -1
  store i32 %114, i32* %4, align 4
  br label %43

115:                                              ; preds = %43
  br label %116

116:                                              ; preds = %115
  %117 = load i32, i32* %3, align 4
  %118 = add nsw i32 %117, -1
  store i32 %118, i32* %3, align 4
  br label %37

119:                                              ; preds = %37
  store i32 0, i32* %4, align 4
  br label %120

120:                                              ; preds = %130, %119
  %121 = load i32, i32* %4, align 4
  %122 = load i32, i32* %2, align 4
  %123 = icmp slt i32 %121, %122
  br i1 %123, label %124, label %133

124:                                              ; preds = %120
  %125 = load i32, i32* %4, align 4
  %126 = sext i32 %125 to i64
  %127 = getelementptr inbounds [10 x i8], [10 x i8]* %14, i64 %126
  %128 = getelementptr inbounds [10 x i8], [10 x i8]* %127, i64 0, i64 0
  %129 = call i32 (i8*, ...) @printf(i8* getelementptr inbounds ([4 x i8], [4 x i8]* @.str.2, i64 0, i64 0), i8* %128)
  br label %130

130:                                              ; preds = %124
  %131 = load i32, i32* %4, align 4
  %132 = add nsw i32 %131, 1
  store i32 %132, i32* %4, align 4
  br label %120

133:                                              ; preds = %120
  %134 = call i32 @getchar()
  %135 = call i32 @getchar()
  %136 = load i8*, i8** %6, align 8
  call void @llvm.stackrestore(i8* %136)
  %137 = load i32, i32* %1, align 4
  ret i32 %137
}

declare dso_local i32 @__isoc99_scanf(i8*, ...) #1

; Function Attrs: nounwind
declare i8* @llvm.stacksave() #2

; Function Attrs: nounwind
declare dso_local i8* @strcpy(i8*, i8*) #3

declare dso_local i32 @printf(i8*, ...) #1

declare dso_local i32 @getchar() #1

; Function Attrs: nounwind
declare void @llvm.stackrestore(i8*) #2


!llvm.module.flags = !{!0}
!llvm.ident = !{!1}

!0 = !{i32 1, !"wchar_size", i32 4}
!1 = !{!"clang version 10.0.0-4ubuntu1 "}
